target datalayout = "e-m:e-p270:32:32-p271:32:32-p272:64:64-i64:64-i128:128-f80:128-n8:16:32:64-S128"
target triple = "x86_64-pc-linux-gnu"

@hf_aim_fnac_subtype_ssi_buddyname = internal global i32 0, align 4
@hf_aim_fnac_subtype_ssi_buddyname_len8 = internal global i32 0, align 4
@hf_aim_fnac_subtype_ssi_reason_str_len = internal global i32 0, align 4
@hf_aim_fnac_subtype_ssi_reason_str = internal global i32 0, align 4
@hf_aim_fnac_subtype_ssi_allow_auth = internal global i32 0, align 4

; Function Attrs: null_pointer_is_valid sspstrong uwtable
define internal i32 @dissect_aim_snac_ssi_auth_reply(ptr noundef %0, ptr noundef %1, ptr noundef %2) #0 {
  %4 = alloca ptr, align 8
  %5 = alloca ptr, align 8
  %6 = alloca ptr, align 8
  %7 = alloca i32, align 4
  %8 = alloca i16, align 2
  %9 = alloca i8, align 1
  store ptr %0, ptr %4, align 8
  store ptr %1, ptr %5, align 8
  store ptr %2, ptr %6, align 8
  call void @llvm.lifetime.start.p0(i64 4, ptr %7) #13
  store i32 0, ptr %7, align 4
  call void @llvm.lifetime.start.p0(i64 2, ptr %8) #13
  call void @llvm.lifetime.start.p0(i64 1, ptr %9) #13
  %10 = load ptr, ptr %4, align 8
  %11 = load i32, ptr %7, align 4
  %12 = call zeroext i8 @tvb_get_uint8(ptr noundef %10, i32 noundef %11)
  store i8 %12, ptr %9, align 1
  %13 = load ptr, ptr %6, align 8
  %14 = load i32, ptr @hf_aim_fnac_subtype_ssi_buddyname_len8, align 4
  %15 = load ptr, ptr %4, align 8
  %16 = load i32, ptr %7, align 4
  %17 = call ptr @proto_tree_add_item(ptr noundef %13, i32 noundef %14, ptr noundef %15, i32 noundef %16, i32 noundef 1, i32 noundef 0)
  %18 = load i32, ptr %7, align 4
  %19 = add i32 %18, 1
  store i32 %19, ptr %7, align 4
  %20 = load i8, ptr %9, align 1
  %21 = zext i8 %20 to i32
  %22 = icmp sgt i32 %21, 0
  br i1 %22, label %23, label %35

23:                                               ; preds = %3
  %24 = load ptr, ptr %6, align 8
  %25 = load i32, ptr @hf_aim_fnac_subtype_ssi_buddyname, align 4
  %26 = load ptr, ptr %4, align 8
  %27 = load i32, ptr %7, align 4
  %28 = load i8, ptr %9, align 1
  %29 = zext i8 %28 to i32
  %30 = call ptr @proto_tree_add_item(ptr noundef %24, i32 noundef %25, ptr noundef %26, i32 noundef %27, i32 noundef %29, i32 noundef 2)
  %31 = load i8, ptr %9, align 1
  %32 = zext i8 %31 to i32
  %33 = load i32, ptr %7, align 4
  %34 = add i32 %33, %32
  store i32 %34, ptr %7, align 4
  br label %35

35:                                               ; preds = %23, %3
  %36 = load ptr, ptr %6, align 8
  %37 = load i32, ptr @hf_aim_fnac_subtype_ssi_allow_auth, align 4
  %38 = load ptr, ptr %4, align 8
  %39 = load i32, ptr %7, align 4
  %40 = call ptr @proto_tree_add_item(ptr noundef %36, i32 noundef %37, ptr noundef %38, i32 noundef %39, i32 noundef 1, i32 noundef 0)
  %41 = load i32, ptr %7, align 4
  %42 = add i32 %41, 1
  store i32 %42, ptr %7, align 4
  %43 = load ptr, ptr %4, align 8
  %44 = load i32, ptr %7, align 4
  %45 = call zeroext i16 @tvb_get_ntohs(ptr noundef %43, i32 noundef %44)
  store i16 %45, ptr %8, align 2
  %46 = load ptr, ptr %6, align 8
  %47 = load i32, ptr @hf_aim_fnac_subtype_ssi_reason_str_len, align 4
  %48 = load ptr, ptr %4, align 8
  %49 = load i32, ptr %7, align 4
  %50 = call ptr @proto_tree_add_item(ptr noundef %46, i32 noundef %47, ptr noundef %48, i32 noundef %49, i32 noundef 2, i32 noundef 0)
  %51 = load i32, ptr %7, align 4
  %52 = add i32 %51, 2
  store i32 %52, ptr %7, align 4
  %53 = load i16, ptr %8, align 2
  %54 = zext i16 %53 to i32
  %55 = icmp sgt i32 %54, 0
  br i1 %55, label %56, label %68

56:                                               ; preds = %35
  %57 = load ptr, ptr %6, align 8
  %58 = load i32, ptr @hf_aim_fnac_subtype_ssi_reason_str, align 4
  %59 = load ptr, ptr %4, align 8
  %60 = load i32, ptr %7, align 4
  %61 = load i16, ptr %8, align 2
  %62 = zext i16 %61 to i32
  %63 = call ptr @proto_tree_add_item(ptr noundef %57, i32 noundef %58, ptr noundef %59, i32 noundef %60, i32 noundef %62, i32 noundef 2)
  %64 = load i16, ptr %8, align 2
  %65 = zext i16 %64 to i32
  %66 = load i32, ptr %7, align 4
  %67 = add i32 %66, %65
  store i32 %67, ptr %7, align 4
  br label %68

68:                                               ; preds = %56, %35
  %69 = load i32, ptr %7, align 4
  call void @llvm.lifetime.end.p0(i64 1, ptr %9) #13
  call void @llvm.lifetime.end.p0(i64 2, ptr %8) #13
  call void @llvm.lifetime.end.p0(i64 4, ptr %7) #13
  ret i32 %69
}