; Function Attrs: null_pointer_is_valid sspstrong uwtable
define internal range(i32 4, 65795) i32 @dissect_aim_snac_ssi_auth_reply(ptr noundef %0, ptr readnone captures(none) %1, ptr noundef %2) #0 {
  %4 = tail call zeroext i8 @tvb_get_uint8(ptr noundef %0, i32 noundef 0)
  %5 = load i32, ptr @hf_aim_fnac_subtype_ssi_buddyname_len8, align 4
  %6 = tail call ptr @proto_tree_add_item(ptr noundef %2, i32 noundef %5, ptr noundef %0, i32 noundef 0, i32 noundef 1, i32 noundef 0)
  %.not = icmp eq i8 %4, 0
  br i1 %.not, label %12, label %7

7:                                                ; preds = %3
  %8 = zext i8 %4 to i32
  %9 = load i32, ptr @hf_aim_fnac_subtype_ssi_buddyname, align 4
  %10 = tail call ptr @proto_tree_add_item(ptr noundef %2, i32 noundef %9, ptr noundef %0, i32 noundef 1, i32 noundef %8, i32 noundef 2)
  %11 = add nuw nsw i32 %8, 1
  br label %12

12:                                               ; preds = %7, %3
  %.0 = phi i32 [ %11, %7 ], [ 1, %3 ]
  %13 = load i32, ptr @hf_aim_fnac_subtype_ssi_allow_auth, align 4
  %14 = tail call ptr @proto_tree_add_item(ptr noundef %2, i32 noundef %13, ptr noundef %0, i32 noundef %.0, i32 noundef 1, i32 noundef 0)
  %15 = add nuw nsw i32 %.0, 1
  %16 = tail call zeroext i16 @tvb_get_ntohs(ptr noundef %0, i32 noundef %15)
  %17 = load i32, ptr @hf_aim_fnac_subtype_ssi_reason_str_len, align 4
  %18 = tail call ptr @proto_tree_add_item(ptr noundef %2, i32 noundef %17, ptr noundef %0, i32 noundef %15, i32 noundef 2, i32 noundef 0)
  %19 = add nuw nsw i32 %.0, 3
  %.not32 = icmp eq i16 %16, 0
  br i1 %.not32, label %25, label %20

20:                                               ; preds = %12
  %21 = zext i16 %16 to i32
  %22 = load i32, ptr @hf_aim_fnac_subtype_ssi_reason_str, align 4
  %23 = tail call ptr @proto_tree_add_item(ptr noundef %2, i32 noundef %22, ptr noundef %0, i32 noundef %19, i32 noundef %21, i32 noundef 2)
  %24 = add nuw nsw i32 %19, %21
  br label %25

25:                                               ; preds = %20, %12
  %.1 = phi i32 [ %24, %20 ], [ %19, %12 ]
  ret i32 %.1
}